; Function Attrs: mustprogress nounwind uwtable
define hidden void @_ZNK5XPage5printEv(ptr noundef nonnull align 8 dereferenceable(136) %0) local_unnamed_addr #0 align 2 {
  %2 = load ptr, ptr @tty, align 8
  %3 = load i8, ptr %0, align 8
  %switch.selectcmp.i.i = icmp eq i8 %3, 1
  %switch.select.i.i = select i1 %switch.selectcmp.i.i, ptr @.str.17, ptr @.str.18
  %switch.selectcmp2.i.i = icmp eq i8 %3, 0
  %switch.select3.i.i = select i1 %switch.selectcmp2.i.i, ptr @.str.16, ptr %switch.select.i.i
  %4 = getelementptr inbounds i8, ptr %0, i64 8
  %5 = load i64, ptr %4, align 8
  %6 = getelementptr inbounds i8, ptr %0, i64 24
  %7 = load volatile i64, ptr %6, align 8
  %8 = getelementptr inbounds i8, ptr %0, i64 16
  %9 = load i64, ptr %8, align 8
  %10 = getelementptr inbounds i8, ptr %0, i64 4
  %11 = load i32, ptr %10, align 4
  %12 = load i32, ptr @XGlobalSeqNum, align 4
  %13 = icmp eq i32 %11, %12
  %14 = select i1 %13, ptr @.str.4, ptr @.str.5
  %15 = icmp ult i32 %11, %12
  %16 = select i1 %15, ptr @.str.6, ptr @.str.5
  tail call void (ptr, ptr, ...) @_ZN12outputStream8print_crEPKcz(ptr noundef nonnull align 8 dereferenceable(56) %2, ptr noundef nonnull @.str, ptr noundef nonnull %switch.select3.i.i, i64 noundef %5, i64 noundef %7, i64 noundef %9, ptr noundef nonnull %14, ptr noundef nonnull %16) #8
  ret void
}